; Function Attrs: mustprogress uwtable
define noundef double @_ZN8QuantLib34blackFormulaStdDevSecondDerivativeERKN5boost10shared_ptrINS_18PlainVanillaPayoffEEEdddd(ptr nocapture noundef nonnull readonly align 8 dereferenceable(16) %payoff, double noundef %forward, double noundef %stdDev, double noundef %discount, double noundef %displacement) local_unnamed_addr #4 {
entry:
  %0 = load ptr, ptr %payoff, align 8, !tbaa !31
  %cmp.not.i = icmp eq ptr %0, null
  br i1 %cmp.not.i, label %cond.false.i, label %_ZNK5boost10shared_ptrIN8QuantLib18PlainVanillaPayoffEEptEv.exit, !prof !33

cond.false.i:                                     ; preds = %entry
  tail call void @_ZN5boost16assertion_failedEPKcS1_S1_l(ptr noundef nonnull @.str.77, ptr noundef nonnull @__PRETTY_FUNCTION__._ZNK5boost10shared_ptrIN8QuantLib18PlainVanillaPayoffEEptEv, ptr noundef nonnull @.str.78, i64 noundef 784)
  %.pre.i = load ptr, ptr %payoff, align 8, !tbaa !31
  br label %_ZNK5boost10shared_ptrIN8QuantLib18PlainVanillaPayoffEEptEv.exit

_ZNK5boost10shared_ptrIN8QuantLib18PlainVanillaPayoffEEptEv.exit: ; preds = %entry, %cond.false.i
  %1 = phi ptr [ %0, %entry ], [ %.pre.i, %cond.false.i ]
  %strike_.i = getelementptr inbounds nuw i8, ptr %1, i64 16
  %2 = load double, ptr %strike_.i, align 8, !tbaa !38
  %call2 = tail call noundef double @_ZN8QuantLib34blackFormulaStdDevSecondDerivativeEddddd(double noundef %2, double noundef %forward, double noundef %stdDev, double noundef %discount, double noundef %displacement)
  ret double %call2
}